target datalayout = "e-m:e-p270:32:32-p271:32:32-p272:64:64-i64:64-i128:128-f80:128-n8:16:32:64-S128"
target triple = "x86_64-pc-linux-gnu"

%struct.ident_t = type { i32, i32, i32, i32, ptr }
%"class.LightGBM::RegressionL2loss" = type <{ %"class.LightGBM::ObjectiveFunction", i8, [3 x i8], i32, ptr, ptr, %"class.std::vector", i8, [7 x i8] }>
%"class.LightGBM::ObjectiveFunction" = type { ptr }
%"class.std::vector" = type { %"struct.std::_Vector_base" }
%"struct.std::_Vector_base" = type { %"struct.std::_Vector_base<float, std::allocator<float>>::_Vector_impl" }
%"struct.std::_Vector_base<float, std::allocator<float>>::_Vector_impl" = type { %"struct.std::_Vector_base<float, std::allocator<float>>::_Vector_impl_data" }
%"struct.std::_Vector_base<float, std::allocator<float>>::_Vector_impl_data" = type { ptr, ptr, ptr }
%"class.LightGBM::RegressionL2loss.base" = type <{ %"class.LightGBM::ObjectiveFunction", i8, [3 x i8], i32, ptr, ptr, %"class.std::vector", i8 }>
%"class.LightGBM::RegressionFairLoss" = type { %"class.LightGBM::RegressionL2loss.base", double }

@1 = private unnamed_addr constant %struct.ident_t { i32 0, i32 514, i32 0, i32 22, ptr @0 }, align 8

; Function Attrs: alwaysinline norecurse nounwind uwtable
define internal void @_ZNK8LightGBM18RegressionFairLoss12GetGradientsEPKdPfS3_.omp_outlined.37(ptr noalias noundef %0, ptr noalias noundef %1, ptr noundef %2, ptr noundef nonnull align 8 dereferenceable(8) %3, ptr noundef nonnull align 8 dereferenceable(8) %4, ptr noundef nonnull align 8 dereferenceable(8) %5) #16 {
  %7 = alloca ptr, align 8
  %8 = alloca ptr, align 8
  %9 = alloca ptr, align 8
  %10 = alloca ptr, align 8
  %11 = alloca ptr, align 8
  %12 = alloca ptr, align 8
  %13 = alloca i32, align 4
  %14 = alloca i32, align 4
  %15 = alloca i32, align 4
  %16 = alloca i32, align 4
  %17 = alloca i32, align 4
  %18 = alloca i32, align 4
  %19 = alloca i32, align 4
  %20 = alloca i32, align 4
  %21 = alloca i32, align 4
  %22 = alloca double, align 8
  store ptr %0, ptr %7, align 8, !tbaa !193
  store ptr %1, ptr %8, align 8, !tbaa !193
  store ptr %2, ptr %9, align 8, !tbaa !82
  store ptr %3, ptr %10, align 8, !tbaa !224
  store ptr %4, ptr %11, align 8, !tbaa !216
  store ptr %5, ptr %12, align 8, !tbaa !216
  %23 = load ptr, ptr %9, align 8, !tbaa !82
  %24 = load ptr, ptr %10, align 8, !tbaa !224
  %25 = load ptr, ptr %11, align 8, !tbaa !216
  %26 = load ptr, ptr %12, align 8, !tbaa !216
  call void @llvm.lifetime.start.p0(i64 4, ptr %13) #3
  call void @llvm.lifetime.start.p0(i64 4, ptr %14) #3
  %27 = getelementptr inbounds nuw %"class.LightGBM::RegressionL2loss", ptr %23, i32 0, i32 3
  %28 = load i32, ptr %27, align 4, !tbaa !188
  store i32 %28, ptr %14, align 4, !tbaa !141
  call void @llvm.lifetime.start.p0(i64 4, ptr %15) #3
  %29 = load i32, ptr %14, align 4, !tbaa !141
  %30 = sub nsw i32 %29, 0
  %31 = sdiv i32 %30, 1
  %32 = sub nsw i32 %31, 1
  store i32 %32, ptr %15, align 4, !tbaa !141
  call void @llvm.lifetime.start.p0(i64 4, ptr %16) #3
  store i32 0, ptr %16, align 4, !tbaa !141
  call void @llvm.lifetime.end.p0(i64 4, ptr %16) #3
  %33 = load i32, ptr %14, align 4, !tbaa !141
  %34 = icmp slt i32 0, %33
  br i1 %34, label %35, label %132

35:                                               ; preds = %6
  call void @llvm.lifetime.start.p0(i64 4, ptr %17) #3
  store i32 0, ptr %17, align 4, !tbaa !141
  call void @llvm.lifetime.start.p0(i64 4, ptr %18) #3
  %36 = load i32, ptr %15, align 4, !tbaa !141
  store i32 %36, ptr %18, align 4, !tbaa !141
  call void @llvm.lifetime.start.p0(i64 4, ptr %19) #3
  store i32 1, ptr %19, align 4, !tbaa !141
  call void @llvm.lifetime.start.p0(i64 4, ptr %20) #3
  store i32 0, ptr %20, align 4, !tbaa !141
  call void @llvm.lifetime.start.p0(i64 4, ptr %21) #3
  %37 = load ptr, ptr %7, align 8
  %38 = load i32, ptr %37, align 4, !tbaa !141
  call void @__kmpc_for_static_init_4(ptr @1, i32 %38, i32 34, ptr %20, ptr %17, ptr %18, ptr %19, i32 1, i32 1)
  %39 = load i32, ptr %18, align 4, !tbaa !141
  %40 = load i32, ptr %15, align 4, !tbaa !141
  %41 = icmp sgt i32 %39, %40
  br i1 %41, label %42, label %44

42:                                               ; preds = %35
  %43 = load i32, ptr %15, align 4, !tbaa !141
  br label %46

44:                                               ; preds = %35
  %45 = load i32, ptr %18, align 4, !tbaa !141
  br label %46

46:                                               ; preds = %44, %42
  %47 = phi i32 [ %43, %42 ], [ %45, %44 ]
  store i32 %47, ptr %18, align 4, !tbaa !141
  %48 = load i32, ptr %17, align 4, !tbaa !141
  store i32 %48, ptr %13, align 4, !tbaa !141
  br label %49

49:                                               ; preds = %125, %46
  %50 = load i32, ptr %13, align 4, !tbaa !141
  %51 = load i32, ptr %18, align 4, !tbaa !141
  %52 = icmp sle i32 %50, %51
  br i1 %52, label %54, label %53

53:                                               ; preds = %49
  br label %128

54:                                               ; preds = %49
  %55 = load i32, ptr %13, align 4, !tbaa !141
  %56 = mul nsw i32 %55, 1
  %57 = add nsw i32 0, %56
  store i32 %57, ptr %21, align 4, !tbaa !141
  call void @llvm.lifetime.start.p0(i64 8, ptr %22) #3
  %58 = load ptr, ptr %24, align 8, !tbaa !191
  %59 = load i32, ptr %21, align 4, !tbaa !141
  %60 = sext i32 %59 to i64
  %61 = getelementptr inbounds double, ptr %58, i64 %60
  %62 = load double, ptr %61, align 8, !tbaa !194
  %63 = getelementptr inbounds nuw %"class.LightGBM::RegressionL2loss", ptr %23, i32 0, i32 4
  %64 = load ptr, ptr %63, align 8, !tbaa !189
  %65 = load i32, ptr %21, align 4, !tbaa !141
  %66 = sext i32 %65 to i64
  %67 = getelementptr inbounds float, ptr %64, i64 %66
  %68 = load float, ptr %67, align 4, !tbaa !210
  %69 = fpext float %68 to double
  %70 = fsub double %62, %69
  store double %70, ptr %22, align 8, !tbaa !194
  %71 = getelementptr inbounds nuw %"class.LightGBM::RegressionFairLoss", ptr %23, i32 0, i32 1
  %72 = load double, ptr %71, align 8, !tbaa !85
  %73 = load double, ptr %22, align 8, !tbaa !194
  %74 = fmul double %72, %73
  %75 = load double, ptr %22, align 8, !tbaa !194
  %76 = call double @llvm.fabs.f64(double %75)
  %77 = getelementptr inbounds nuw %"class.LightGBM::RegressionFairLoss", ptr %23, i32 0, i32 1
  %78 = load double, ptr %77, align 8, !tbaa !85
  %79 = fadd double %76, %78
  %80 = fdiv double %74, %79
  %81 = getelementptr inbounds nuw %"class.LightGBM::RegressionL2loss", ptr %23, i32 0, i32 5
  %82 = load ptr, ptr %81, align 8, !tbaa !190
  %83 = load i32, ptr %21, align 4, !tbaa !141
  %84 = sext i32 %83 to i64
  %85 = getelementptr inbounds float, ptr %82, i64 %84
  %86 = load float, ptr %85, align 4, !tbaa !210
  %87 = fpext float %86 to double
  %88 = fmul double %80, %87
  %89 = fptrunc double %88 to float
  %90 = load ptr, ptr %25, align 8, !tbaa !192
  %91 = load i32, ptr %21, align 4, !tbaa !141
  %92 = sext i32 %91 to i64
  %93 = getelementptr inbounds float, ptr %90, i64 %92
  store float %89, ptr %93, align 4, !tbaa !210
  %94 = getelementptr inbounds nuw %"class.LightGBM::RegressionFairLoss", ptr %23, i32 0, i32 1
  %95 = load double, ptr %94, align 8, !tbaa !85
  %96 = getelementptr inbounds nuw %"class.LightGBM::RegressionFairLoss", ptr %23, i32 0, i32 1
  %97 = load double, ptr %96, align 8, !tbaa !85
  %98 = fmul double %95, %97
  %99 = load double, ptr %22, align 8, !tbaa !194
  %100 = call double @llvm.fabs.f64(double %99)
  %101 = getelementptr inbounds nuw %"class.LightGBM::RegressionFairLoss", ptr %23, i32 0, i32 1
  %102 = load double, ptr %101, align 8, !tbaa !85
  %103 = fadd double %100, %102
  %104 = load double, ptr %22, align 8, !tbaa !194
  %105 = call double @llvm.fabs.f64(double %104)
  %106 = getelementptr inbounds nuw %"class.LightGBM::RegressionFairLoss", ptr %23, i32 0, i32 1
  %107 = load double, ptr %106, align 8, !tbaa !85
  %108 = fadd double %105, %107
  %109 = fmul double %103, %108
  %110 = fdiv double %98, %109
  %111 = getelementptr inbounds nuw %"class.LightGBM::RegressionL2loss", ptr %23, i32 0, i32 5
  %112 = load ptr, ptr %111, align 8, !tbaa !190
  %113 = load i32, ptr %21, align 4, !tbaa !141
  %114 = sext i32 %113 to i64
  %115 = getelementptr inbounds float, ptr %112, i64 %114
  %116 = load float, ptr %115, align 4, !tbaa !210
  %117 = fpext float %116 to double
  %118 = fmul double %110, %117
  %119 = fptrunc double %118 to float
  %120 = load ptr, ptr %26, align 8, !tbaa !192
  %121 = load i32, ptr %21, align 4, !tbaa !141
  %122 = sext i32 %121 to i64
  %123 = getelementptr inbounds float, ptr %120, i64 %122
  store float %119, ptr %123, align 4, !tbaa !210
  call void @llvm.lifetime.end.p0(i64 8, ptr %22) #3
  br label %124

124:                                              ; preds = %54
  br label %125

125:                                              ; preds = %124
  %126 = load i32, ptr %13, align 4, !tbaa !141
  %127 = add nsw i32 %126, 1
  store i32 %127, ptr %13, align 4, !tbaa !141
  br label %49

128:                                              ; preds = %53
  br label %129

129:                                              ; preds = %128
  %130 = load ptr, ptr %7, align 8
  %131 = load i32, ptr %130, align 4, !tbaa !141
  call void @__kmpc_for_static_fini(ptr @1, i32 %131)
  call void @llvm.lifetime.end.p0(i64 4, ptr %21) #3
  call void @llvm.lifetime.end.p0(i64 4, ptr %20) #3
  call void @llvm.lifetime.end.p0(i64 4, ptr %19) #3
  call void @llvm.lifetime.end.p0(i64 4, ptr %18) #3
  call void @llvm.lifetime.end.p0(i64 4, ptr %17) #3
  br label %132

132:                                              ; preds = %129, %6
  call void @llvm.lifetime.end.p0(i64 4, ptr %15) #3
  call void @llvm.lifetime.end.p0(i64 4, ptr %14) #3
  call void @llvm.lifetime.end.p0(i64 4, ptr %13) #3
  ret void
}