; Function Attrs: alwaysinline norecurse nounwind uwtable
define internal void @_ZNK8LightGBM18RegressionFairLoss12GetGradientsEPKdPfS3_.omp_outlined.37(ptr noalias noundef readonly captures(none) %0, ptr noalias readnone captures(none) %1, ptr noundef readonly captures(none) %2, ptr noundef nonnull readonly align 8 captures(none) dereferenceable(8) %3, ptr noundef nonnull readonly align 8 captures(none) dereferenceable(8) %4, ptr noundef nonnull readonly align 8 captures(none) dereferenceable(8) %5) #14 {
  %7 = alloca i32, align 4
  %8 = alloca i32, align 4
  %9 = alloca i32, align 4
  %10 = alloca i32, align 4
  %11 = getelementptr inbounds nuw i8, ptr %2, i64 12
  %12 = load i32, ptr %11, align 4, !tbaa !147
  %13 = icmp sgt i32 %12, 0
  br i1 %13, label %14, label %56

14:                                               ; preds = %6
  %15 = add nsw i32 %12, -1
  call void @llvm.lifetime.start.p0(i64 4, ptr nonnull %7) #15
  store i32 0, ptr %7, align 4, !tbaa !127
  call void @llvm.lifetime.start.p0(i64 4, ptr nonnull %8) #15
  store i32 %15, ptr %8, align 4, !tbaa !127
  call void @llvm.lifetime.start.p0(i64 4, ptr nonnull %9) #15
  store i32 1, ptr %9, align 4, !tbaa !127
  call void @llvm.lifetime.start.p0(i64 4, ptr nonnull %10) #15
  store i32 0, ptr %10, align 4, !tbaa !127
  %16 = load i32, ptr %0, align 4, !tbaa !127
  call void @__kmpc_for_static_init_4(ptr nonnull @1, i32 %16, i32 34, ptr nonnull %10, ptr nonnull %7, ptr nonnull %8, ptr nonnull %9, i32 1, i32 1)
  %17 = load i32, ptr %8, align 4, !tbaa !127
  %18 = call i32 @llvm.smin.i32(i32 %17, i32 %15)
  store i32 %18, ptr %8, align 4, !tbaa !127
  %19 = load i32, ptr %7, align 4, !tbaa !127
  %.not23 = icmp sgt i32 %19, %18
  br i1 %.not23, label %._crit_edge, label %.lr.ph

.lr.ph:                                           ; preds = %14
  %20 = load ptr, ptr %3, align 8, !tbaa !152
  %21 = getelementptr inbounds nuw i8, ptr %2, i64 16
  %22 = load ptr, ptr %21, align 8, !tbaa !148
  %23 = getelementptr inbounds nuw i8, ptr %2, i64 64
  %24 = load double, ptr %23, align 8, !tbaa !71
  %25 = getelementptr inbounds nuw i8, ptr %2, i64 24
  %26 = load ptr, ptr %25, align 8, !tbaa !151
  %27 = load ptr, ptr %4, align 8, !tbaa !150
  %28 = fmul double %24, %24
  %29 = load ptr, ptr %5, align 8, !tbaa !150
  %30 = sext i32 %19 to i64
  %31 = add nsw i32 %18, 1
  br label %32

32:                                               ; preds = %.lr.ph, %32
  %indvars.iv = phi i64 [ %30, %.lr.ph ], [ %indvars.iv.next, %32 ]
  %33 = getelementptr inbounds double, ptr %20, i64 %indvars.iv
  %34 = load double, ptr %33, align 8, !tbaa !153
  %35 = getelementptr inbounds float, ptr %22, i64 %indvars.iv
  %36 = load float, ptr %35, align 4, !tbaa !175
  %37 = fpext float %36 to double
  %38 = fsub double %34, %37
  %39 = fmul double %24, %38
  %40 = call double @llvm.fabs.f64(double %38)
  %41 = fadd double %24, %40
  %42 = fdiv double %39, %41
  %43 = getelementptr inbounds float, ptr %26, i64 %indvars.iv
  %44 = load float, ptr %43, align 4, !tbaa !175
  %45 = fpext float %44 to double
  %46 = fmul double %42, %45
  %47 = fptrunc double %46 to float
  %48 = getelementptr inbounds float, ptr %27, i64 %indvars.iv
  store float %47, ptr %48, align 4, !tbaa !175
  %49 = fmul double %41, %41
  %50 = fdiv double %28, %49
  %51 = load float, ptr %43, align 4, !tbaa !175
  %52 = fpext float %51 to double
  %53 = fmul double %50, %52
  %54 = fptrunc double %53 to float
  %55 = getelementptr inbounds float, ptr %29, i64 %indvars.iv
  store float %54, ptr %55, align 4, !tbaa !175
  %indvars.iv.next = add nsw i64 %indvars.iv, 1
  %lftr.wideiv = trunc i64 %indvars.iv.next to i32
  %exitcond.not = icmp eq i32 %31, %lftr.wideiv
  br i1 %exitcond.not, label %._crit_edge, label %32

._crit_edge:                                      ; preds = %32, %14
  call void @__kmpc_for_static_fini(ptr nonnull @1, i32 %16)
  call void @llvm.lifetime.end.p0(i64 4, ptr nonnull %10) #15
  call void @llvm.lifetime.end.p0(i64 4, ptr nonnull %9) #15
  call void @llvm.lifetime.end.p0(i64 4, ptr nonnull %8) #15
  call void @llvm.lifetime.end.p0(i64 4, ptr nonnull %7) #15
  br label %56

56:                                               ; preds = %._crit_edge, %6
  ret void
}